(lp0
(lp1
F3.0193027502021197
aF0.1863674542095353
aF0.02015369176648181
aa(lp2
F3.186009966517941
aF-3.8050024511286353
aF4.896337287060705
aa(lp3
F2.3433522754526397
aF4.303764827999225
aF1.5743369761727528
aa(lp4
F-0.7544810292022883
aF4.340914577944417
aF3.242601704128467
aa(lp5
F-4.894621309924956
aF-0.04688636221516165
aF3.4978253645051454
aa.