(lp0
(lp1
F7.246064857580151
aF0.011672220702537095
aa(lp2
F3.327655351693055
aF4.0688869295750845
aa(lp3
F2.742430469150272
aF0.33075358441403113
aa(lp4
F2.36238882084629
aF-4.346817109352293
aa(lp5
F-0.5790259096226686
aF4.376968408551726
aa(lp6
F-1.5602647446585656
aF-4.042628614139723
aa(lp7
F-5.682986183495043
aF0.33275121742910274
aa(lp8
F-2.4367902528024388
aF4.102835055997129
aF3.172441695068718
aa.