(lp0
(lp1
F7.311947958067367
aF-0.48847662866876096
aa(lp2
F2.873179273266223
aF4.1626957448610025
aa(lp3
F2.7925299934011334
aF0.10503080971887041
aa(lp4
F3.1764059465503527
aF-4.009197214334438
aa(lp5
F-1.6854506595634255
aF4.114874120007837
aa(lp6
F-1.1864360651324128
aF-3.8652006942625436
aa(lp7
F-5.098717236382368
aF-0.2259673685621788
aa.