(lp0
(lp1
F2.2454292156272047
aF-0.06784388379512053
aF6.268616692649833
aa(lp2
F2.984083245267668
aF-3.5825552202026794
aF4.71735247390023
aa(lp3
F7.36188495860071
aF-0.7755885665654291
aF1.5251982177369323
aa.