(lp0
(lp1
F2.3557050253418295
aF-0.08954199733892912
aF0.04611950513945812
aa(lp2
F3.364023081880288
aF-3.97808733668138
aF4.771499511024162
aa(lp3
F7.251329035490985
aF0.4641096449467193
aF1.5229225033876297
aa(lp4
F2.6558439250233623
aF4.038982906815562
aF1.5924244840554187
aa(lp5
F-0.5423341997683591
aF-4.533031522682609
aF3.175381145601795
aa(lp6
F-5.668604060917396
aF-1.0933424469039337
aF1.5833791993658448
aa(lp7
F-1.4704260149267487
aF3.5327152518018132
aF1.592754584482621
aa.