(lp0
(lp1
F7.3172294706983285
aF0.5418242364905252
aa(lp2
F3.3326492583806457
aF3.950521597727768
aa(lp3
F2.955916296319082
aF0.3264037219060458
aa(lp4
F2.806316891260286
aF-4.286290817211187
aa(lp5
F-0.5
aF4.5
aa(lp6
F-0.8899178346015029
aF-4.478357502782036
aa(lp7
F-5.5
aF0.8
aa.