(lp0
(lp1
F2.245548616035868
aF0.061058258281956095
aF0.04611950513945812
aa(lp2
F2.9462322279506337
aF-3.5680294815318616
aF4.771499511024162
aa(lp3
F7.339973208568538
aF-0.12859627845858174
aF1.5229225033876297
aa(lp4
F3.0775069188897266
aF3.6516818842969476
aF1.5924244840554187
aa.