(lp0
(lp1
F7.293717231860453
aF-0.16989205699566468
aa(lp2
F2.962930277751463
aF3.7178852825969724
aa(lp3
F2.8846688939042613
aF0.5733629076456485
aa(lp4
F2.475514412830294
aF-4.213363717443477
aa(lp5
F-0.576946955590269
aF4.197467675709304
aa(lp6
F-1.6157100496630379
aF0.026409977571626775
aa(lp7
F-0.8706851057548315
aF-4.49325747749179
aa.