(lp0
(lp1
F2.576368759092529
aF0.4102184826917879
aF0.035906860156067054
aa(lp2
F2.686453703585764
aF4.019718641547863
aF1.5390611880021736
aa(lp3
F-1.634277624555745
aF4.202675678296995
aF3.150920154092731
aa(lp4
F-5.102696215470205
aF-0.14166304733625612
aF3.4137927251107842
aa(lp5
F-1.386185751130423
aF-4.603088852252444
aF6.259302864530725
aa(lp6
F2.9019655516991425
aF-3.627791853348276
aF4.6598396116359595
aa.