(lp0
(lp1
F2.793739907626239
aF-0.31806492632412253
aF6.278804273775775
aa(lp2
F2.676670050897691
aF-4.4161127009200385
aF4.72320063808111
aa(lp3
F3.1044637866291604
aF3.82985975024844
aF1.5792409012712354
aa(lp4
F-1.3481064447485707
aF3.9190815271133115
aF3.282121979409034
aa(lp5
F-5.271723935627756
aF0.24672758437433961
aF4.719626562092186
aa(lp6
F-1.4949915643792846
aF-4.317604431220152
aF6.2282583253842025
aa(lp7
F7.3078114843208075
aF0.4421810388406885
aF4.735564447049102
aa.