(lp0
(lp1
F2.3550132019916408
aF-0.0932014502404819
aF0.04611950513945812
aa(lp2
F2.9563781591751255
aF-3.5973055131426097
aF4.771499511024162
aa(lp3
F7.248171274477752
aF0.2854285031664958
aF1.5229225033876297
aa(lp4
F2.5230469364125883
aF4.1136982743941255
aF1.5924244840554187
aa(lp5
F-1.353288832027546
aF4.353064232339837
aF3.1414910129526445
aa(lp6
F-5.687405880737742
aF0.12530574505523345
aF4.7126914836577
aa(lp7
F-2.2360887529021296
aF-4.435266356801482
aF6.263399005498769
aa.