(lp0
(lp1
F7.3218470292018285
aF-0.7632350400800367
aa(lp2
F2.6372197206363777
aF4.377726834999911
aa(lp3
F2.808241444110921
aF0.1656504457452836
aa(lp4
F2.53445277635727
aF-3.890826511998642
aa(lp5
F-1.2066610235675355
aF4.342025371636701
aa(lp6
F-1.195556781918971
aF0.6095764278259863
aa(lp7
F-1.2190468650446376
aF-4.091543623653576
aa.