(lp0
(lp1
F7.227035728125401
aF-0.0034915381552307334
aa(lp2
F3.322403923282198
aF3.936101349581916
aa(lp3
F2.3217811842654656
aF0.03600213533817806
aa(lp4
F2.2
aF-4.4
aa(lp5
F-0.5
aF4.5
aa(lp6
F-2.0
aF-4.0
aa(lp7
F-5.5
aF0.8
aa.