(lp0
(lp1
F2.3274496481525793
aF-0.02545555214155626
aF0.04611950513945812
aa(lp2
F3.007497123469085
aF-3.629967393092473
aF4.771499511024162
aa(lp3
F7.385083255735719
aF-0.9092296407065351
aF1.5229225033876297
aa(lp4
F-0.46046556848788794
aF-4.599092578575646
aF3.305518117866073
aa.