(lp0
(lp1
F7.270925101039392
aF0.017556246272097342
aa(lp2
F2.7253489436696587
aF4.166799380088124
aa(lp3
F2.424716344992378
aF-0.11724942858336884
aa(lp4
F2.2
aF-4.4
aa(lp5
F-0.3698672825191891
aF4.5271700047536525
aa(lp6
F-2.0
aF-4.0
aa(lp7
F-5.5
aF0.8
aa.