(lp0
(lp1
F2.3652341126559104
aF-0.091834997931667
aF0.04611950513945812
aa(lp2
F3.619489784606256
aF-4.117308574284052
aF4.771499511024162
aa(lp3
F7.359202739655043
aF-0.44903870940530166
aF1.5229225033876297
aa(lp4
F2.9349713495563847
aF3.640892045171494
aF1.5924244840554187
aa.