(lp0
(lp1
F2.2532702574840693
aF-0.06436021311975952
aF6.248329741447782
aa(lp2
F3.047089682448919
aF-3.7292345650320313
aF4.820034742814068
aa(lp3
F7.376654504973048
aF-0.8142141687025283
aF1.4882984115896898
aa.