(lp0
(lp1
F2.324216515228885
aF-0.014587421055916969
aF0.04611950513945812
aa(lp2
F2.9563781591751255
aF-3.5973055131426097
aF4.771499511024162
aa(lp3
F7.285563235489987
aF0.26773947460805464
aF1.5229225033876297
aa(lp4
F3.3002242568519247
aF3.9846204270282306
aF1.605699058899774
aa.