(lp0
(lp1
F2.4946965818528866
aF0.37269759722289375
aF0.04611950513945812
aa(lp2
F3.246549471094627
aF-3.91549197509503
aF4.771499511024162
aa(lp3
F7.3398229979826715
aF-0.8611807857663794
aF1.5229225033876297
aa(lp4
F-0.5924028491983687
aF-4.269730408323739
aF3.1534655688743936
aa(lp5
F-5.029431853182864
aF-0.26066191511407616
aF1.573872065273956
aa(lp6
F-1.6059115766513903
aF4.380177601446408
aF0.012120646510065045
aa(lp7
F1.9408059418497636
aF4.7084553431056655
aF0.09056864017018008
aa.