(lp0
(lp1
F7.2895171054743475
aF-0.7446010611200409
aa(lp2
F2.836780103190594
aF4.2720543707378695
aa(lp3
F2.7846253071784863
aF0.4154160294448373
aa(lp4
F3.095629132533394
aF-4.143965619185151
aa(lp5
F-0.5
aF4.5
aa(lp6
F-1.3236259935034522
aF-4.131265172850929
aa(lp7
F-5.108240653519472
aF-0.1074359962377723
aa(lp8
F-2.1514737609794174
aF4.129022614835678
aF0.14097613440090997
aa.