(lp0
(lp1
F6.778034925370271
aF0.06426042454765081
aa(lp2
F2.491500858161978
aF4.276780974410437
aa(lp3
F2.620734604012023
aF0.3175610445116963
aa(lp4
F2.5688228653773395
aF-4.009237313189236
aa(lp5
F-0.7035089089481014
aF4.182635712969593
aa(lp6
F-2.332834586666256
aF-4.281293167348853
aa(lp7
F-5.43450406289732
aF-0.11691704186437366
aa.