(lp0
(lp1
F7.286806074951374
aF-0.21486881038497183
aa(lp2
F2.8955601860847895
aF4.135349802714277
aa(lp3
F2.57621551847007
aF0.1824266509310943
aa(lp4
F2.5327776577119847
aF-4.02652832970998
aa(lp5
F-0.4272544953872727
aF4.47605961320118
aa(lp6
F-2.0
aF-4.0
aa(lp7
F-5.5
aF0.8
aa.