(lp0
(lp1
F2.798381665969148
aF-0.11333421306507122
aF0.04611950513945812
aa(lp2
F2.7830072576745426
aF-4.381937346880509
aF4.771499511024162
aa(lp3
F7.31225135706957
aF-0.7211742106911325
aF1.5229225033876297
aa(lp4
F2.9590133384465065
aF3.8077236330980426
aF1.5924244840554187
aa(lp5
F-0.5062798341171751
aF4.457512320478173
aF3.0617166406034104
aa(lp6
F-5.33798394300344
aF0.5244692154824161
aF4.689487367759897
aa(lp7
F-1.8585473155934464
aF-3.9401707019469803
aF6.265451325437776
aa.