(lp0
(lp1
F7.274501674402336
aF0.43895563182160885
aa(lp2
F3.206923453253978
aF3.9219419801695423
aa(lp3
F2.4893693389634706
aF-0.17442688688089886
aa(lp4
F2.9970559006297535
aF-3.9472998140985087
aa(lp5
F-0.7450537497083392
aF4.354468348410488
aa(lp6
F-1.672368110424477
aF-4.146818745745376
aa(lp7
F-5.146152783239341
aF0.2694878634006169
aa.