(lp0
(lp1
F7.298729458278325
aF0.026753675865710203
aa(lp2
F3.178989414843551
aF3.957493967652283
aa(lp3
F2.7063714150150116
aF0.44987608019984565
aa(lp4
F3.1881105776391587
aF-3.8576803798614456
aa(lp5
F-1.371256531118563
aF4.267713619671639
aa(lp6
F-0.9908139609344082
aF-4.562103260176247
aa(lp7
F-5.511338924902743
aF-0.103872916920558
aa.