(lp0
(lp1
F7.000930258140163
aF0.12300456468445933
aa(lp2
F2.520441805011205
aF4.322513816370154
aa(lp3
F3.007519106687637
aF0.7538608573841594
aa(lp4
F2.5657150987800534
aF-4.134615925841972
aa(lp5
F-0.5829439068302442
aF4.407623129760193
aa(lp6
F-1.647247974064915
aF0.06739546190795803
aa(lp7
F-0.8055868799445406
aF-4.579799415280599
aa.