(lp0
(lp1
F2.2490544544204623
aF0.0677040181305467
aF0.04611950513945812
aa(lp2
F2.5062844166783966
aF-4.178137424987886
aF4.771499511024162
aa(lp3
F7.285473892320768
aF-0.13592123403048556
aF1.5229225033876297
aa(lp4
F2.8375731714494905
aF4.183204988458135
aF1.5143825817684031
aa(lp5
F-0.5248413684698691
aF4.450275177421545
aF3.356515774509631
aa(lp6
F-4.885061298821773
aF-0.034837006084814715
aF3.3970016194343224
aa(lp7
F-1.2271823759285079
aF-3.6420195899223895
aF0.014406402087819958
aa.