(lp0
(lp1
F2.679134863325087
aF0.37201137608123136
aF0.04611950513945812
aa(lp2
F2.635469798286121
aF-4.0360136510232145
aF4.771499511024162
aa(lp3
F7.341190303343878
aF-0.3717635861826116
aF1.5229225033876297
aa(lp4
F3.0229938794859885
aF3.6638825751936217
aF1.5924244840554187
aa(lp5
F-1.1871181590308975
aF3.865437009449793
aF3.0998479539866115
aa(lp6
F-5.54382532340084
aF0.15524159232532703
aF3.335602346479733
aa(lp7
F-1.9629754862092454
aF-4.126147445654679
aF6.276068298090294
aa.