(lp0
(lp1
F2.640438078557433
aF-0.39825185099418536
aF0.01392027947216059
aa(lp2
F3.324993333722454
aF4.057730421841167
aF1.4601315028391062
aa(lp3
F2.9917386168320395
aF-3.685454547871823
aF4.934852775390957
aa(lp4
F-0.49312462553995756
aF4.384735712366089
aF3.1763937011078736
aa(lp5
F7.268907445906075
aF0.671903356681941
aF4.696737222681047
aa.