(lp0
(lp1
F6.799569191065078
aF0.024040476364862645
aa(lp2
F3.542318859791218
aF4.083778199498074
aa(lp3
F2.772946204477857
aF-0.4835850893466257
aa(lp4
F2.650919538692661
aF-4.100481386370742
aa(lp5
F-1.3
aF3.6
aa(lp6
F-1.5019973478435944
aF-0.6988984177978368
aa(lp7
F-0.6194091079229158
aF-4.429782419396127
aa.