(lp0
(lp1
F7.28065489144398
aF0.04117438442285204
aa(lp2
F2.612843083725025
aF3.999839074347728
aa(lp3
F3.0003278337430515
aF0.10069766093582388
aa(lp4
F2.6274919018253966
aF-4.078308950668513
aa(lp5
F-0.892679419826266
aF3.959287776457492
aa(lp6
F-1.4885627159497228
aF0.442705627938203
aa(lp7
F-1.5496497014405075
aF-4.123834228669748
aa.