(lp0
(lp1
F7.3
aF-0.7
aa(lp2
F2.8138916493837636
aF4.150394040766104
aa(lp3
F2.313710590537147
aF-0.0402970766590637
aa(lp4
F2.2
aF-4.4
aa(lp5
F-0.8392704186292372
aF4.13194792078684
aa(lp6
F-1.5247811866109893
aF0.3857716950782265
aa(lp7
F-1.2
aF-4.7
aa.