(lp0
(lp1
F6.937486627258279
aF-0.33802875578405894
aa(lp2
F3.25404460703595
aF3.796344503282576
aa(lp3
F2.8143780174665407
aF0.3408023955376908
aa(lp4
F3.3072230106121774
aF-3.9669324266429586
aa(lp5
F-1.5011343908434127
aF4.11658589186937
aa(lp6
F-1.3695310393907087
aF-0.4639646554605764
aa(lp7
F-1.1288959738061828
aF-3.762714467188708
aa.