(lp0
(lp1
F2.7082412467836283
aF0.40849511996888416
aF0.04611950513945812
aa(lp2
F2.9563781591751255
aF-3.5973055131426097
aF4.771499511024162
aa(lp3
F7.385083255735719
aF-0.9092296407065351
aF1.5229225033876297
aa(lp4
F2.7201737124895686
aF4.042297826742788
aF1.4591384344788354
aa(lp5
F-0.8541634841447552
aF4.499642658720138
aF3.0639724805351998
aa.