(lp0
(lp1
F2.2504937294337943
aF-0.008695890540616553
aF0.04611950513945812
aa(lp2
F2.697850139255702
aF-4.182237042914322
aF4.771499511024162
aa(lp3
F7.398298608578822
aF-0.8774130001450401
aF1.5229225033876297
aa(lp4
F-1.2019120276426394
aF-3.9920046864297456
aF3.1236814472444636
aa(lp5
F-5.218652043388936
aF-0.6255149031233395
aF1.5633951258798255
aa(lp6
F-2.2378225943813073
aF4.1803970607166745
aF0.025836453223427844
aa.