(lp0
(lp1
F3.0091424510681297
aF0.21452838189838108
aF6.223912383338065
aa(lp2
F2.8720160335567817
aF-4.006447533339559
aF4.712862513267724
aa(lp3
F7.355486247714131
aF-0.6686013474537593
aF1.5654716945030644
aa(lp4
F2.9514972873890493
aF3.9703368239608956
aF3.095048628686635
aa(lp5
F-1.3004185195189337
aF-4.300415555551892
aF3.126973364048369
aa(lp6
F-5.330684302181114
aF0.09602402136088406
aF1.5502676028780618
aa(lp7
F-1.0610662602122414
aF4.027555143574135
aF0.12279613857798084
aa.