(lp0
(lp1
F7.3248730442960195
aF-0.31947127955817467
aa(lp2
F2.4456219173400893
aF4.274663568963021
aa(lp3
F2.807310650349775
aF-0.5152234756088285
aa(lp4
F3.2104006457633467
aF-3.9656880225187905
aa(lp5
F-0.7165567429384943
aF4.202711145836533
aa(lp6
F-1.7
aF-0.6
aa(lp7
F-1.2
aF-4.7
aa.