(lp0
(lp1
F2.46803182974569
aF0.25756805036993013
aF0.04611950513945812
aa(lp2
F2.9563781591751255
aF-3.5973055131426097
aF4.771499511024162
aa(lp3
F7.301441765808706
aF0.526193377496331
aF1.5229225033876297
aa(lp4
F2.820463896780786
aF4.045885730258707
aF1.5924244840554187
aa(lp5
F-1.2241690814150936
aF4.3568233508977094
aF3.1265817016081017
aa(lp6
F-5.708811459233867
aF0.887528062802633
aF4.704964306971831
aa.