(lp0
(lp1
F2.787046982326572
aF-0.17888839919171917
aF0.04611950513945812
aa(lp2
F2.874348843882024
aF-4.113476288926221
aF4.771499511024162
aa(lp3
F7.259821190050397
aF0.29948308606074736
aF1.5229225033876297
aa(lp4
F3.2729332400755666
aF3.8903450146125893
aF1.5924244840554187
aa(lp5
F-0.5137046839016808
aF-4.352733769287559
aF3.1007171402307026
aa.