(lp0
(lp1
F2.589874785253977
aF-0.28253628843796674
aF0.044549218455602044
aa(lp2
F2.4355815592262147
aF4.192225850592909
aF1.4419838615356935
aa(lp3
F7.22789730572067
aF0.45921969698513987
aF4.753680299129755
aa(lp4
F3.8526457845922066
aF-4.1933037362129575
aF3.212529317549891
aa(lp5
F-0.6486544545097366
aF4.407261917834317
aF3.4019491358407263
aa.