(lp0
(lp1
F2.6479595352934067
aF0.426877048973508
aF0.04611950513945812
aa(lp2
F2.7305851279992313
aF-4.05333079046842
aF4.771499511024162
aa(lp3
F7.385083255735719
aF-0.9092296407065351
aF1.5229225033876297
aa(lp4
F-0.5076167873472448
aF-4.423588589598552
aF3.2008950200146353
aa(lp5
F-5.624976493387413
aF0.4461576325481206
aF1.577400376081052
aa(lp6
F-1.868982782607354
aF4.116753202287256
aF0.026942910029852978
aa(lp7
F2.5625896633749807
aF4.115473634235312
aF6.27920287544782
aa(lp8
F7.3560262602364945
aF1.1549431904230052
aF4.775258756973671
aa.