(lp0
(lp1
F7.297420532438064
aF0.012799576927507939
aa(lp2
F3.242760554671618
aF3.774640284568677
aa(lp3
F2.698059815426959
aF-0.5278644927441308
aa(lp4
F2.506107123112173
aF-4.032374847469776
aa(lp5
F-0.5
aF4.5
aa(lp6
F-2.0
aF-4.0
aa(lp7
F-5.5
aF0.8
aa.