(lp0
(lp1
F2.3271931166702124
aF-0.01689856248319279
aF0.04611950513945812
aa(lp2
F3.392911800628032
aF-3.913584983917996
aF4.771499511024162
aa(lp3
F7.3320405914570586
aF-0.42988773259162116
aF1.5229225033876297
aa(lp4
F2.8917778999498327
aF3.684641525507256
aF1.6113893197302565
aa.