(lp0
(lp1
F7.24742545329873
aF0.22471616937574174
aa(lp2
F3.2196877343888675
aF3.8957557008002324
aa(lp3
F2.9427147851771602
aF0.6773578272338899
aa(lp4
F3.4788246916023695
aF-4.018355791885812
aa(lp5
F-0.5
aF4.5
aa(lp6
F-2.0
aF-4.0
aa(lp7
F-5.5
aF0.8
aa.