(lp0
(lp1
F2.7820182647507785
aF0.15060765903908235
aF0.04611950513945812
aa(lp2
F3.0528729863868582
aF-3.8040384031700794
aF4.771499511024162
aa(lp3
F7.301456084728372
aF0.6646282468815043
aF1.5229225033876297
aa(lp4
F3.2017312788791226
aF3.9861373405154743
aF1.5924244840554187
aa(lp5
F-1.2819556474938916
aF3.902137020016336
aF3.115100851840815
aa(lp6
F-5.563399837185951
aF0.18920807782031515
aF4.703167069751063
aa(lp7
F-1.848032677414393
aF-4.002387598203202
aF6.247315626987446
aa.