(lp0
(lp1
F7.3
aF-0.7
aa(lp2
F3.5
aF4.1
aa(lp3
F2.2922127971818735
aF0.06115996377552862
aa(lp4
F2.5888214762957817
aF-3.9986807605486883
aa(lp5
F-0.5
aF4.5
aa(lp6
F-1.3251754858578924
aF-4.460700974933882
aa(lp7
F-5.5
aF0.8
aa.