(lp0
(lp1
F2.2515817823080897
aF0.08162397381481859
aF0.05791233622003812
aa(lp2
F2.733300307342601
aF-4.158750246030381
aF4.768289230508657
aa(lp3
F7.323432049632624
aF-0.8658199648552632
aF1.526260241830466
aa(lp4
F-0.5271902509591225
aF-4.271754493762401
aF3.1090083391602117
aa.