(lp0
(lp1
F2.3232493452166465
aF-0.024721854636287906
aF0.04611950513945812
aa(lp2
F2.9563781591751255
aF-3.5973055131426097
aF4.771499511024162
aa(lp3
F7.260432149773659
aF0.6266246737809673
aF1.5229225033876297
aa(lp4
F2.5973117918407316
aF4.020892923648351
aF1.5924244840554187
aa(lp5
F-0.3710626731403188
aF4.555344377008211
aF3.3213886498158884
aa.