(lp0
(lp1
F2.7241019740008117
aF-0.4033213263948693
aF6.257686627525374
aa(lp2
F3.199975998478944
aF3.7604421373359704
aF1.615115727606783
aa(lp3
F-1.1283958181712195
aF3.723987663130135
aF3.1607620984311344
aa(lp4
F-5.088934931675237
aF0.3829087837600076
aF4.7339251484589715
aa(lp5
F-1.7302434788373322
aF-3.7601623811540126
aF6.258355978363256
aa(lp6
F2.2163126381793354
aF-4.019934278732154
aF6.2499787909823565
aa(lp7
F7.096618246047387
aF-1.0386457656386363
aF1.4681860458050584
aa.