(lp0
(lp1
F7.273864390014023
aF0.008329641677334243
aa(lp2
F2.424740194980052
aF4.257645509208428
aa(lp3
F2.7541175750497695
aF0.26210132570874617
aa(lp4
F2.2
aF-4.4
aa(lp5
F-1.0297360900518537
aF4.199918387656323
aa(lp6
F-1.8478554443107078
aF-0.1628532839551386
aa(lp7
F-1.9250746017645475
aF-3.822060730580348
aa.