(lp0
(lp1
F2.8364606436319146
aF0.27508404675774
aF0.014448759114612488
aa(lp2
F2.7400928711191037
aF-4.344343983652617
aF4.841872394716338
aa(lp3
F2.9699623564873905
aF3.61747863086719
aF1.614796776742909
aa(lp4
F7.331911032119084
aF-0.8339572590174962
aF1.579643020269743
aa(lp5
F-1.4058248575511554
aF-3.8877088478165938
aF3.140744012645562
aa(lp6
F-5.237182772921551
aF0.04665529189586745
aF1.5821554543527383
aa(lp7
F-1.4235792406079488
aF3.6027673370710724
aF1.6202336637067607
aa.