(lp0
(lp1
F2.698110781255921
aF0.3468171109972131
aF0.04611950513945812
aa(lp2
F2.9563781591751255
aF-3.5973055131426097
aF4.771499511024162
aa(lp3
F7.258552720811686
aF0.3256078454882443
aF1.5229225033876297
aa(lp4
F2.8811799880693623
aF3.7226858469832202
aF1.5924244840554187
aa.