(lp0
(lp1
F2.6778872439243075
aF0.46459303309831923
aF6.257686627525374
aa(lp2
F3.536078007461928
aF3.9387027097440286
aF1.615115727606783
aa(lp3
F-1.1283958181712195
aF3.723987663130135
aF3.1607620984311344
aa(lp4
F-5.088934931675237
aF0.3829087837600076
aF4.7339251484589715
aa(lp5
F-1.7302434788373322
aF-3.7601623811540126
aF6.258355978363256
aa(lp6
F2.4449265604842045
aF-4.156455294629282
aF6.2499787909823565
aa(lp7
F7.092969878315365
aF-1.0996789705532295
aF1.4681860458050584
aa.