(lp0
(lp1
F6.952686315764977
aF0.010405840268355032
aa(lp2
F3.2225854728516197
aF3.9010940723830316
aa(lp3
F2.499758333041391
aF-0.21214073206514888
aa(lp4
F2.9836943509855054
aF-4.369777781160021
aa(lp5
F-0.5
aF4.5
aa(lp6
F-1.62004958099652
aF-4.52838486939613
aa(lp7
F-5.300235590070871
aF-0.8121082280160123
aa(lp8
F-2.2398532800508004
aF3.9179999507401213
aF0.17256551933729886
aa.