(lp0
(lp1
F2.355954027893577
aF-0.08888148107647645
aF0.04611950513945812
aa(lp2
F2.9563781591751255
aF-3.5973055131426097
aF4.771499511024162
aa(lp3
F7.301290688815962
aF0.22280749883249842
aF1.5229225033876297
aa(lp4
F3.050656782700357
aF3.628573824410929
aF1.5924244840554187
aa.