(lp0
(lp1
F2.3176287454916498
aF-0.03840612772842919
aF0.04611950513945812
aa(lp2
F2.643774052036856
aF-4.012615819079755
aF4.771499511024162
aa(lp3
F7.331122849976595
aF-0.1513943234110829
aF1.5229225033876297
aa(lp4
F3.0775069188897266
aF3.6516818842969476
aF1.5924244840554187
aa(lp5
F-1.007777778816983
aF-3.862056663400058
aF3.1703237439943215
aa.