(lp0
(lp1
F2.2925451130467027
aF-0.022040961338397072
aF0.04611950513945812
aa(lp2
F2.861175089356704
aF-4.1588235353548555
aF4.771499511024162
aa(lp3
F7.29086261755072
aF0.4818551914241198
aF1.5229225033876297
aa(lp4
F2.4501332326410683
aF4.170834179563466
aF1.5924244840554187
aa(lp5
F-1.098768210598593
aF-4.187814607070816
aF3.1199156750934476
aa(lp6
F-5.275024331874546
aF-0.1772771211254202
aF1.584556638310834
aa(lp7
F-1.5993144789180185
aF3.9876350701188343
aF1.6049325484208083
aa.