(lp0
(lp1
F7.217249336201141
aF0.3350151124983311
aa(lp2
F2.570536116917492
aF4.034433329892995
aa(lp3
F2.6746751450379724
aF0.4781726902372624
aa(lp4
F3.1476289015576597
aF-3.9037974050031155
aa(lp5
F-0.5880553825061208
aF4.349002998592333
aa(lp6
F-1.697889266899359
aF0.008432380339633838
aa(lp7
F-1.2
aF-4.7
aa.