(lp0
(lp1
F2.3209204973673896
aF-0.027595002254044834
aF0.04611950513945812
aa(lp2
F2.9563781591751255
aF-3.5973055131426097
aF4.771499511024162
aa(lp3
F7.322982044733685
aF0.6922295932603483
aF1.5229225033876297
aa(lp4
F3.019858257477628
aF3.6046866317874886
aF1.5924244840554187
aa.