(lp0
(lp1
F2.4241569304206356
aF-0.20069444184168508
aF0.01396936057641223
aa(lp2
F2.616709423876782
aF-4.0191276079417175
aF4.698699325374558
aa(lp3
F2.946831526866169
aF3.6482662322709265
aF1.5458431130051298
aa(lp4
F-0.5060358413953346
aF4.686989768286555
aF3.237910330316173
aa(lp5
F-4.899168284417299
aF0.06825012274545422
aF3.1009497941914357
aa(lp6
F-1.807710293207495
aF-4.014576754249201
aF0.011724941652868222
aa(lp7
F7.387633971369249
aF-0.8489616624116714
aF1.5799470936211668
aa.