(lp0
(lp1
F7.3
aF-0.7
aa(lp2
F3.202091687703521
aF3.8932552033717585
aa(lp3
F2.7099092406157235
aF-0.4414995961746874
aa(lp4
F2.6421572528207102
aF-4.105959317154468
aa(lp5
F-0.9290969313981188
aF4.073170505463298
aa(lp6
F-1.6384760854933798
aF0.01273784657438326
aa(lp7
F-1.2
aF-4.7
aa.