(lp0
(lp1
F7.316695207715104
aF-0.7573362774500603
aa(lp2
F2.752674850467021
aF4.137191478004723
aa(lp3
F2.6709833700103136
aF0.22147983433571014
aa(lp4
F2.5822846463548297
aF-3.982546789778399
aa(lp5
F-0.8048128675716446
aF4.102834849886155
aa(lp6
F-1.7
aF-0.6
aa(lp7
F-1.2
aF-4.7
aa.