(lp0
(lp1
F2.7031953956895096
aF0.4624519710508554
aF6.279161291785163
aa(lp2
F2.465117136787377
aF4.203626853479964
aF1.6329644139835917
aa(lp3
F-1.2523813247861728
aF3.9011924883078413
aF3.119097718903537
aa(lp4
F-5.47857094339796
aF0.7246566578576759
aF4.710574550622515
aa(lp5
F7.303663844433094
aF0.6899373800824031
aF4.710695204326074
aa.