(lp0
(lp1
F7.28277166272243
aF0.16800031948422672
aa(lp2
F3.5164639301143517
aF4.211367100046878
aa(lp3
F2.351857237160108
aF-0.07115209691737018
aa(lp4
F3.0244174915342326
aF-4.3286823708983455
aa(lp5
F-1.3
aF3.6
aa(lp6
F-1.7
aF-0.6
aa(lp7
F-1.2
aF-4.7
aa.