(lp0
(lp1
F2.242044971701879
aF0.049449087449411
aF0.026844163434632872
aa(lp2
F2.910901473583629
aF-3.5691058482770024
aF4.760178606010385
aa(lp3
F7.3648202777226786
aF-0.7895944638933036
aF1.5225169699706942
aa.