(lp0
(lp1
F7.3250893742433805
aF-0.329247079355128
aa(lp2
F2.5224787864307086
aF4.210816429732455
aa(lp3
F2.526047324816531
aF-0.1532368217744018
aa(lp4
F2.4731591459790803
aF-4.311850682494743
aa(lp5
F-0.8483525685332329
aF4.167925603254628
aa(lp6
F-1.4336344550199893
aF-4.379989830056529
aa(lp7
F-5.14395781549402
aF-0.017234896963431043
aa.