(lp0
(lp1
F2.321159542211823
aF-0.03776350949056495
aF0.04611950513945812
aa(lp2
F2.9563781591751255
aF-3.5973055131426097
aF4.771499511024162
aa(lp3
F7.322693714092262
aF0.601698851242058
aF1.5229225033876297
aa(lp4
F2.695484856112939
aF4.002466162202116
aF1.5924244840554187
aa(lp5
F-0.5768458246929492
aF4.329822251060129
aF3.1782318069205506
aa.