(lp0
(lp1
F2.900136540102269
aF-0.5661692963782163
aF6.231877093430527
aa(lp2
F3.2097321742610756
aF-3.712573065505992
aF4.706634139706591
aa(lp3
F3.310981577013653
aF3.9909035706131055
aF1.56568551868999
aa(lp4
F7.349845847078183
aF-0.06093123117986354
aF1.5455637129592164
aa.