(lp0
(lp1
F2.632227419708603
aF-0.3440052118500892
aF0.048040769201224916
aa(lp2
F2.871975341745204
aF-3.656400785456975
aF4.674484467187082
aa(lp3
F2.6169416702774555
aF3.983153739178531
aF1.58816027731552
aa(lp4
F-1.3414826673996445
aF4.307249930733069
aF3.1269714495362266
aa(lp5
F-4.8110649476636524
aF-0.04653804785984186
aF3.3685577791254584
aa(lp6
F7.2997657722225355
aF0.7235257865547567
aF4.737474101907456
aa.