(lp0
(lp1
F2.356558406372553
aF0.03399858626823022
aF0.04611950513945812
aa(lp2
F2.6267830323464465
aF-4.132118301282399
aF4.771499511024162
aa(lp3
F7.30716308221035
aF-0.10671546855489183
aF1.5229225033876297
aa(lp4
F2.943498359067615
aF3.610189475771177
aF1.5924244840554187
aa(lp5
F-0.7504984931670242
aF-3.8890943078113787
aF3.2602613804356944
aa(lp6
F-5.560620372850057
aF-0.6878466358726038
aF1.5772436610951637
aa.