(lp0
(lp1
F7.3
aF-0.7
aa(lp2
F3.5
aF4.1
aa(lp3
F2.415478762164896
aF-0.10491984307339922
aa(lp4
F2.439537638220167
aF-4.219987514829043
aa(lp5
F-0.5
aF4.5
aa(lp6
F-0.9920628547244266
aF-4.2698472251805875
aa(lp7
F-5.5
aF0.8
aa.