(lp0
(lp1
F7.3
aF-0.7
aa(lp2
F3.254082159558709
aF3.856580221124963
aa(lp3
F2.3826211825045247
aF0.016197292826978543
aa(lp4
F2.2
aF-4.4
aa(lp5
F-1.2313462469918615
aF3.806960937577089
aa(lp6
F-1.3214033134820147
aF0.5322147310469856
aa(lp7
F-1.349212350176944
aF-3.8456207303868077
aa.