(lp0
(lp1
F7.334956352069783
aF-0.8375676181665122
aa(lp2
F2.5965488242691173
aF4.414098043956057
aa(lp3
F2.741550297563271
aF0.23471028966039434
aa(lp4
F3.0253774172129346
aF-4.237535172104343
aa(lp5
F-0.5116772111008144
aF4.504012386329426
aa(lp6
F-1.5129263978629295
aF-0.2402209522077283
aa(lp7
F-2.1087891564466124
aF-3.5053680497009845
aa(lp8
F-0.535806100726749
aF-4.407557015278366
aF3.275810120553222
aa.