(lp0
(lp1
F2.329682078194266
aF-0.020374408969028285
aF0.04611950513945812
aa(lp2
F2.984065359895643
aF-3.591218627886251
aF4.771499511024162
aa(lp3
F7.255835459554098
aF0.9399071262852869
aF1.5229225033876297
aa(lp4
F2.991341627817288
aF4.314094229570529
aF1.5924244840554187
aa(lp5
F-0.3598563671021534
aF-4.608757920401936
aF3.2889676201784535
aa(lp6
F-5.169884301683426
aF-0.5297222307295417
aF1.5971730951858794
aa(lp7
F-1.4911804578501529
aF3.6198744015139
aF1.6722641488998582
aa.