(lp0
(lp1
F7.444831903609781
aF0.4028212258069125
aa(lp2
F3.2459828694464
aF4.4354144133176465
aa(lp3
F2.369814783211942
aF-0.11538893119578737
aa(lp4
F3.428538435704649
aF-3.973299643329456
aa(lp5
F-1.3151972839745867
aF4.386056578527799
aa(lp6
F-0.8792302592346809
aF-4.300544310502113
aa(lp7
F-5.560798430671408
aF0.005252763448307163
aa.