(lp0
(lp1
F7.3
aF-0.7
aa(lp2
F2.66544607427711
aF4.125629508452269
aa(lp3
F2.7344344011014288
aF-0.4444379320389205
aa(lp4
F2.661574102249558
aF-4.060161156271028
aa(lp5
F-0.512343873182484
aF4.514995057265981
aa(lp6
F-0.9960693832902071
aF-4.264742190673392
aa(lp7
F-5.603657151270827
aF0.6811603606526846
aa(lp8
F-2.0391689005170743
aF3.9250986822014284
aF3.3300671199640264
aa.