(lp0
(lp1
F7.3
aF-0.7
aa(lp2
F2.3511025037892894
aF4.396939935319636
aa(lp3
F2.4259650313455046
aF-0.10512085466578541
aa(lp4
F2.2
aF-4.4
aa(lp5
F-0.5800058582924625
aF4.3732893490300375
aa(lp6
F-1.6219771807255823
aF0.03123496176642576
aa(lp7
F-1.795327074758824
aF-4.239767553279882
aa.