(lp0
(lp1
F2.283533247598315
aF0.010206354951133298
aF0.04611950513945812
aa(lp2
F2.9563781591751255
aF-3.5973055131426097
aF4.771499511024162
aa(lp3
F7.281579970659209
aF0.3065262085671636
aF1.5229225033876297
aa(lp4
F3.051792091201348
aF3.668575623651668
aF1.5924244840554187
aa.