(lp0
(lp1
F2.32044928833397
aF0.08597829956179415
aF0.04611950513945812
aa(lp2
F2.3238856567319806
aF-4.2390813511417385
aF4.771499511024162
aa(lp3
F7.319327845846777
aF-0.416049016744763
aF1.5229225033876297
aa(lp4
F3.4501195273979706
aF3.9405652163094227
aF1.5924244840554187
aa(lp5
F-0.9298591052065162
aF3.9098488491493533
aF3.0810963198752175
aa(lp6
F-5.609169226163224
aF1.2371911119138417
aF4.65910179575512
aa(lp7
F-1.7207041091548778
aF-4.127108828055382
aF6.183553796079957
aa.