(lp0
(lp1
F2.7041973945022417
aF0.34007886414533334
aF0.04611950513945812
aa(lp2
F2.2800410314257036
aF-4.351238663587843
aF4.771499511024162
aa(lp3
F7.309727487642853
aF-0.5203850402113714
aF1.5229225033876297
aa(lp4
F2.985574152351804
aF3.623907013939795
aF1.5924244840554187
aa(lp5
F-0.4834697265266884
aF-4.468402349459078
aF3.2332719263493734
aa.