(lp0
(lp1
F2.2825355181258313
aF0.024919251731765894
aF0.04611950513945812
aa(lp2
F2.754163794286046
aF-4.040824560536844
aF4.771499511024162
aa(lp3
F7.309096458947793
aF-0.4368093082052801
aF1.5229225033876297
aa(lp4
F2.943498359067615
aF3.610189475771177
aF1.5924244840554187
aa(lp5
F-0.6520285098144574
aF-4.317541031521862
aF3.144565659525548
aa.