(lp0
(lp1
F7.32867381220858
aF-0.815810799639392
aa(lp2
F2.777369203073102
aF4.330635997546259
aa(lp3
F2.9821983254592315
aF0.19894107948695758
aa(lp4
F2.7965101963612238
aF-4.215421134336605
aa(lp5
F-0.9195235882109422
aF4.123735598589669
aa(lp6
F-1.7321474344101462
aF0.04193705560831079
aa(lp7
F-1.3241389136539188
aF-3.6417608258246847
aa.