(lp0
(lp1
F7.3
aF-0.7
aa(lp2
F3.5
aF4.1
aa(lp3
F2.4957228211755202
aF-0.22363356069383192
aa(lp4
F2.5865168080892444
aF-4.001861442110223
aa(lp5
F-1.3355170369019043
aF3.5952769701873564
aa(lp6
F-1.5931350239078625
aF0.22505197223785617
aa(lp7
F-1.1041886422274405
aF-4.189903044444436
aa.