(lp0
(lp1
F7.1161350392252976
aF0.4359537316974798
aa(lp2
F2.597663466200931
aF4.162730553869724
aa(lp3
F2.9526278648274484
aF-0.6834112018711673
aa(lp4
F3.263804799517553
aF-3.796911004737084
aa(lp5
F-0.6629934623755802
aF4.27847087273819
aa(lp6
F-1.7
aF-0.6
aa(lp7
F-1.2
aF-4.7
aa.