(lp0
(lp1
F2.474635957054196
aF0.22138921480757473
aF0.04611950513945812
aa(lp2
F2.995487564577583
aF-3.598237832904422
aF4.771499511024162
aa(lp3
F7.281736352118536
aF0.3367900323670153
aF1.5229225033876297
aa(lp4
F3.20615320406991
aF4.185063984288638
aF1.5924244840554187
aa(lp5
F-1.1776317600778206
aF4.332078723942901
aF3.135534636197912
aa(lp6
F-4.9602812935239005
aF0.08566562058801346
aF3.039766872121634
aa(lp7
F-0.5097760766443212
aF-4.816307736864967
aF3.3894029742882803
aa.