(lp0
(lp1
F2.251211102513336
aF0.07418524561543689
aF0.04611950513945812
aa(lp2
F3.092812791233228
aF-3.699404472668988
aF4.771499511024162
aa(lp3
F7.37510745652558
aF-0.8736590964560045
aF1.5229225033876297
aa.