(lp0
(lp1
F2.5592894244903173
aF-0.37064792235017285
aF6.219559310838935
aa(lp2
F3.446352079714725
aF-4.074016603158579
aF4.940820374420333
aa(lp3
F2.88441024199867
aF4.177794027826434
aF1.570178714766887
aa(lp4
F7.279113259110337
aF0.028460250700789225
aF4.701571365935559
aa(lp5
F-0.5004349583331725
aF4.358369310013917
aF3.1619929148187387
aa.