(lp0
(lp1
F2.689961183068628
aF0.43872648081138255
aF0.04611950513945812
aa(lp2
F2.9563781591751255
aF-3.5973055131426097
aF4.771499511024162
aa(lp3
F7.328157233900503
aF0.5872560708596626
aF1.5229225033876297
aa(lp4
F3.039965216464485
aF3.574337006446441
aF1.5924244840554187
aa.