(lp0
(lp1
F2.3258141362707856
aF-0.017566832575120594
aF0.04611950513945812
aa(lp2
F2.900787422032093
aF-4.128946479007425
aF4.771499511024162
aa(lp3
F7.367621087482799
aF-0.7837035134787778
aF1.5229225033876297
aa(lp4
F-0.6490557433819552
aF-4.274921575609798
aF3.15701265230616
aa.