(lp0
(lp1
F2.3185918388119946
aF0.07688871957924961
aF0.04611950513945812
aa(lp2
F3.380089570419895
aF-3.9809630803984946
aF4.771499511024162
aa(lp3
F7.271422093446666
aF0.5326166011598766
aF1.5229225033876297
aa(lp4
F3.289722880751919
aF4.2665611312022325
aF1.5924244840554187
aa(lp5
F-0.6872088120221923
aF4.22124471478492
aF3.2025577661053273
aa(lp6
F-5.001681016125031
aF0.09118333411666478
aF3.297699159055056
aa.