(lp0
(lp1
F2.568991528387323
aF-0.4338979766020185
aF6.224705018582872
aa(lp2
F3.21787252061101
aF4.183718273470335
aF1.4233715814583607
aa(lp3
F-1.5959335541114772
aF4.322884836115802
aF3.096232578219012
aa(lp4
F3.1102954487065393
aF-3.715275514073263
aF4.839582813975782
aa(lp5
F7.413217012201473
aF-0.8838683591670855
aF1.448523218836429
aa(lp6
F-5.22781333141182
aF0.3224127047662808
aF4.692043477450703
aa(lp7
F-2.3570947163631204
aF-4.400161489317491
aF6.252068364714427
aa.