(lp0
(lp1
F6.960302131990979
aF0.08811007307951928
aa(lp2
F3.077287441046133
aF3.696883223514159
aa(lp3
F2.930968979693655
aF-0.29429865060909416
aa(lp4
F3.314664051270448
aF-4.092862064594293
aa(lp5
F-1.6201025142769034
aF3.4928128488646344
aa(lp6
F-1.3789899261691514
aF-0.03888389418942911
aa(lp7
F-1.6806490974409474
aF-4.419239451030059
aa.