(lp0
(lp1
F2.812916476926194
aF0.590319765604572
aF0.04611950513945812
aa(lp2
F2.9190292351933866
aF-3.644030436742238
aF4.771499511024162
aa(lp3
F7.376543458517657
aF-0.9085518226769922
aF1.5229225033876297
aa(lp4
F2.8883938221585277
aF3.7194087469669386
aF1.5437470762432355
aa.