(lp0
(lp1
F2.3249528082691127
aF-0.021813661936495685
aF0.04611950513945812
aa(lp2
F2.4860571438845778
aF-4.150775688111153
aF4.771499511024162
aa(lp3
F7.345041330086712
aF-0.3168215866310694
aF1.5229225033876297
aa(lp4
F-1.7987166130546852
aF-4.373756291142333
aF3.215176813768964
aa(lp5
F-4.979272366614008
aF-0.29421326126163877
aF1.5668378384801578
aa(lp6
F-2.0408461673405274
aF4.099517748267798
aF1.624528209190921
aa(lp7
F2.873849062478466
aF4.424629357812941
aF0.03752836368723464
aa.