(lp0
(lp1
F7.315835772071088
aF-0.7931164584798285
aa(lp2
F3.675019398006998
aF4.121396375290887
aa(lp3
F2.3915198872082266
aF8.507726597352383e-05
aa(lp4
F2.7516510249735395
aF-4.0999091924171545
aa(lp5
F-0.8501100104472903
aF3.9943997474590534
aa(lp6
F-1.5996688757306208
aF-0.4442565725981704
aa(lp7
F-1.9308837867645199
aF-4.149796235506185
aa.