(lp0
(lp1
F2.255603717925955
aF0.05432611613081384
aF0.04611950513945812
aa(lp2
F2.9563781591751255
aF-3.5973055131426097
aF4.771499511024162
aa(lp3
F7.321387629168573
aF0.5073193529175939
aF1.5229225033876297
aa(lp4
F3.0775069188897266
aF3.6516818842969476
aF1.5924244840554187
aa.