(lp0
(lp1
F6.865526424773947
aF-0.21594612703658583
aa(lp2
F3.5
aF4.1
aa(lp3
F2.8668535662875914
aF-0.6107085706221753
aa(lp4
F3.3042403056274416
aF-3.9091247663213196
aa(lp5
F-0.5
aF4.5
aa(lp6
F-1.3224149015659983
aF-4.130925748479102
aa(lp7
F-5.5
aF0.8
aa.