(lp0
(lp1
F7.250109712424864
aF0.1494338370036989
aa(lp2
F2.870151847257783
aF3.8503484664794083
aa(lp3
F2.8559828169661405
aF-0.024105085534156523
aa(lp4
F3.33112198573358
aF-4.351493348374597
aa(lp5
F-1.610060100274389
aF4.219585196316969
aa(lp6
F-1.3162495410579536
aF0.3545972169023207
aa(lp7
F-1.8488673016441197
aF-4.058879995261506
aa.