(lp0
(lp1
F7.264810591631352
aF0.039489851252551
aa(lp2
F3.3705338901930255
aF4.031813620151363
aa(lp3
F2.768701000466837
aF0.28652289163246103
aa(lp4
F2.2
aF-4.4
aa(lp5
F-1.7187852994865276
aF4.3034439472167705
aa(lp6
F-2.1188275124352858
aF-4.252026379933891
aa(lp7
F-5.1910805613276025
aF0.251984782419101
aa.