(lp0
(lp1
F2.321439994104478
aF0.10326105417725524
aF0.04611950513945812
aa(lp2
F2.8079732841750786
aF-4.174519411180526
aF4.771499511024162
aa(lp3
F7.340411900771533
aF-0.43658755370224556
aF1.5229225033876297
aa(lp4
F2.9142379969713295
aF3.6209665402784137
aF1.5676444356612795
aa(lp5
F-0.4790715395439372
aF-4.529341143105415
aF3.1954208166004343
aa.