(lp0
(lp1
F2.8757701393925257
aF0.5292674018810296
aF6.264006060420491
aa(lp2
F3.033033184319528
aF3.641884062263871
aF1.5860194702494246
aa(lp3
F-1.5806546125209924
aF4.094221309278452
aF3.2232157191304247
aa(lp4
F-5.407862808294972
aF0.22247279404505174
aF3.3310609040848584
aa(lp5
F-1.514698831532936
aF-3.7313724032718874
aF0.03618754900858755
aa(lp6
F3.306248451742811
aF-4.523887427338938
aF0.10252101410652953
aa(lp7
F7.322862956577363
aF-0.9753538614133713
aF1.4816753490309837
aa.