(lp0
(lp1
F7.0091441167838875
aF-0.5471713288184842
aa(lp2
F3.1781984620660833
aF3.827652757210253
aa(lp3
F2.85101270558574
aF0.5020738743501855
aa(lp4
F2.722176703053741
aF-4.220138327185026
aa(lp5
F-0.49749847426919447
aF4.506371578437845
aa(lp6
F-1.4156265000435837
aF-4.363728452342834
aa(lp7
F-5.493334026585192
aF-0.322497486042993
aa(lp8
F-2.0425329495223723
aF3.963607114725996
aF3.1270577175170255
aa.