(lp0
(lp1
F2.3184062678645665
aF-0.039889994541704665
aF0.04611950513945812
aa(lp2
F2.94788870068741
aF-3.6179418837375703
aF4.771499511024162
aa(lp3
F7.342463373795651
aF-0.07507201989231371
aF1.5229225033876297
aa(lp4
F3.0775069188897266
aF3.6516818842969476
aF1.5924244840554187
aa.