(lp0
(lp1
F2.6624351298306212
aF-0.35118070165982346
aF0.04611950513945812
aa(lp2
F2.6427755521038914
aF-3.955117846748889
aF4.771499511024162
aa(lp3
F7.332564669317659
aF-0.08960556120852853
aF1.5229225033876297
aa(lp4
F-1.8118888392243682
aF-4.143227748002294
aF3.2820815149227003
aa(lp5
F2.3909660828414228
aF4.221337262696494
aF1.7076958539391554
aa(lp6
F-1.5622047205791734
aF4.202837321937543
aF3.148321358071704
aa(lp7
F-5.636508618483392
aF0.5414668485342737
aF4.690545879383144
aa.