(lp0
(lp1
F2.6978592029896773
aF-0.44359093699941443
aF6.2324785712158715
aa(lp2
F3.176132282647947
aF-3.668864775042632
aF4.764288470083602
aa(lp3
F-0.45732055568618474
aF-4.581850668957089
aF3.2856753121904516
aa.