(lp0
(lp1
F2.6768447675865605
aF-0.4063682000327235
aF6.235940034360547
aa(lp2
F2.7164933623230536
aF-4.215800127501975
aF4.782970376256747
aa(lp3
F7.305735593928567
aF-0.15389638496302444
aF1.4988199877287811
aa(lp4
F-0.9870193268325681
aF-3.9430283413677003
aF3.1157151827703333
aa(lp5
F2.92560244882162
aF3.684649051188621
aF1.6119439514122191
aa.