(lp0
(lp1
F2.896697323148039
aF-0.3501377416527082
aF0.050199970093964964
aa(lp2
F3.091205696138153
aF4.266871877612941
aF1.679760424034435
aa(lp3
F-1.247845296625599
aF4.283744446908603
aF3.2387819290973034
aa(lp4
F-5.2721753006509235
aF0.5089598635430694
aF4.683380387005819
aa(lp5
F7.194066410348079
aF0.5818765431960898
aF4.737358262459051
aa(lp6
F2.67871363549082
aF-3.9734254719443634
aF4.783318690596077
aa(lp7
F-0.4536162671184343
aF-4.562795451755578
aF3.2452215240673667
aa.