(lp0
(lp1
F7.370939735449178
aF-0.4012628455743602
aa(lp2
F2.7409324556158685
aF4.125728792029413
aa(lp3
F3.233229760263126
aF-0.5565883752332655
aa(lp4
F3.034948300478293
aF-4.304627440554784
aa(lp5
F-0.5012196005644343
aF4.433615920041197
aa(lp6
F-0.8604280529262486
aF-4.3062262408868275
aa(lp7
F-5.5
aF0.8
aa(lp8
F-5.598631773014553
aF-1.2988543209903542
aF1.626549289198139
aa.