(lp0
(lp1
F2.3242922561414012
aF-0.027697170571781546
aF0.04611950513945812
aa(lp2
F2.9410679391581214
aF-3.602661654939671
aF4.771499511024162
aa(lp3
F7.327430917530087
aF-0.09984263745193456
aF1.5229225033876297
aa(lp4
F3.0775069188897266
aF3.6516818842969476
aF1.5924244840554187
aa.