(lp0
(lp1
F2.2518582183292395
aF0.055234133963316806
aF0.04611950513945812
aa(lp2
F2.9265642380286643
aF-3.5933395811932076
aF4.771499511024162
aa(lp3
F7.326402762378751
aF0.317335741395833
aF1.5229225033876297
aa(lp4
F-0.7804454162069792
aF-3.9306449329406843
aF3.015910768768628
aa(lp5
F-5.593368475170761
aF-0.8136489753777764
aF1.5847163512125935
aa(lp6
F-1.2656713888518631
aF3.589696477562918
aF1.5277529077988923
aa(lp7
F2.9362747691627913
aF4.31852130920306
aF0.06045531995747295
aa.