(lp0
(lp1
F2.66346454654159
aF0.37660443351396367
aF0.04611950513945812
aa(lp2
F2.7090065197963953
aF-4.510632241262112
aF4.771499511024162
aa(lp3
F7.264531012618766
aF-0.010919740963037883
aF1.5229225033876297
aa(lp4
F2.8629848002655494
aF3.967947812619066
aF1.5924244840554187
aa(lp5
F-0.9104275862925323
aF3.924803246659296
aF3.0376465023726396
aa(lp6
F-5.371551768512782
aF0.2642289687150635
aF4.63328059068683
aa(lp7
F-1.2613546114411858
aF-3.8609025661745795
aF6.19410317355496
aa.