(lp0
(lp1
F2.271351622574779
aF0.08862431341583996
aF0.04611950513945812
aa(lp2
F2.9837447236521517
aF-3.5833342588092663
aF4.771499511024162
aa(lp3
F7.353196194392266
aF-0.8237083434978882
aF1.5229225033876297
aa.