(lp0
(lp1
F2.2456180813205107
aF-0.01002993379300775
aF0.04611950513945812
aa(lp2
F2.949916633768133
aF-3.599670024302094
aF4.771499511024162
aa(lp3
F7.321387629168573
aF0.5073193529175939
aF1.5229225033876297
aa(lp4
F3.0775069188897266
aF3.6516818842969476
aF1.5924244840554187
aa(lp5
F-0.6023667450864736
aF-4.7374377343724365
aF3.3602100058530455
aa.