(lp0
(lp1
F7.3118870247644185
aF0.1565167961484998
aa(lp2
F3.1950624371966887
aF4.141428248407648
aa(lp3
F2.862004158861293
aF0.17290914708737293
aa(lp4
F2.6949595996595015
aF-4.366048360653185
aa(lp5
F-0.508182132098861
aF4.463030019718767
aa(lp6
F-1.4715498779262446
aF-4.119168860173231
aa(lp7
F-5.522916319501619
aF-0.5071116669473523
aa.