(lp0
(lp1
F7.33664969635792
aF-0.764565607333941
aa(lp2
F2.7496463435935112
aF4.160304909889974
aa(lp3
F2.7916719326015764
aF0.2580646265784363
aa(lp4
F2.3370179198359886
aF-4.202946440303855
aa(lp5
F-0.5955275863077908
aF4.373216249138974
aa(lp6
F-1.5973830120654717
aF-4.03441483427577
aa(lp7
F-5.15851685940871
aF-0.19245465186094896
aa(lp8
F-2.246119046334125
aF4.1041308084325046
aF0.050850789906017414
aa.