(lp0
(lp1
F7.022517442341041
aF0.13229719164581377
aa(lp2
F3.456279949925306
aF3.9821802851172095
aa(lp3
F2.466834424250986
aF0.0970962303676356
aa(lp4
F3.3489238649923765
aF-4.137276421282028
aa(lp5
F-0.5
aF4.5
aa(lp6
F-1.3403908259965673
aF-4.136891297857215
aa(lp7
F-5.5
aF0.8
aa.