(lp0
(lp1
F2.318092139592367
aF0.09378683939672657
aF0.04611950513945812
aa(lp2
F2.96842146129772
aF-3.6169849695496206
aF4.771499511024162
aa(lp3
F7.310585159427041
aF-0.24606210414452534
aF1.5229225033876297
aa(lp4
F3.5215942796839013
aF3.9914898312274874
aF1.5924244840554187
aa(lp5
F-1.4337960035201718
aF4.63680143807427
aF3.0330062305381507
aa(lp6
F-5.30561857492533
aF0.8466078247922608
aF3.1021993644241355
aa.