(lp0
(lp1
F7.306425809936204
aF-0.08603547647328835
aa(lp2
F2.7470540497072644
aF4.114846726687224
aa(lp3
F2.3968270358225756
aF-0.02977840464994003
aa(lp4
F2.2
aF-4.4
aa(lp5
F-0.48075697721736477
aF4.6031966538261875
aa(lp6
F-2.0
aF-4.0
aa(lp7
F-5.5
aF0.8
aa.