(lp0
(lp1
F2.564274007395408
aF0.355932694465882
aF0.04611950513945812
aa(lp2
F2.906510753852972
aF-3.6465490450130886
aF4.771499511024162
aa(lp3
F7.288685527889738
aF0.6841463023657397
aF1.5229225033876297
aa(lp4
F3.1302580729762024
aF4.314172150908709
aF1.5924244840554187
aa(lp5
F-0.4965599704976341
aF-4.510233505115271
aF3.228443865346531
aa(lp6
F-5.59981036913756
aF-0.7366150718234825
aF1.5351861234057171
aa(lp7
F-1.4997909541723036
aF4.256511547919934
aF6.282849804764577
aa.