(lp0
(lp1
F7.279750053563486
aF-0.4888052982598439
aa(lp2
F3.7063476597568163
aF4.209704177594823
aa(lp3
F2.908373206351646
aF-0.6218667590316276
aa(lp4
F3.1014192066431825
aF-3.848642470775358
aa(lp5
F-0.5
aF4.5
aa(lp6
F-2.0
aF-4.0
aa(lp7
F-5.5
aF0.8
aa.