(lp0
(lp1
F2.666470377753336
aF-0.3745842648288474
aF0.04611950513945812
aa(lp2
F2.959411657094962
aF-3.6019534495640286
aF4.771499511024162
aa(lp3
F7.241983967774759
aF0.6915089921171284
aF1.5229225033876297
aa(lp4
F3.3610354577115324
aF3.978749817723978
aF1.5924244840554187
aa.