(lp0
(lp1
F2.6682868569217595
aF0.41921215043610977
aF6.257686627525374
aa(lp2
F3.199975998478944
aF3.7604421373359704
aF1.615115727606783
aa(lp3
F-1.1283958181712195
aF3.723987663130135
aF3.1607620984311344
aa(lp4
F-5.088934931675237
aF0.3829087837600076
aF4.7339251484589715
aa(lp5
F-1.7302434788373322
aF-3.7601623811540126
aF6.258355978363256
aa(lp6
F2.0589533238472186
aF-4.560050035497986
aF6.2499787909823565
aa(lp7
F6.826118683505186
aF-0.7941731388505175
aF1.4681860458050584
aa.