(lp0
(lp1
F7.053904922929407
aF0.2922157154581771
aa(lp2
F3.353648155224871
aF4.311991062611128
aa(lp3
F2.909310922585994
aF-0.6747552268529433
aa(lp4
F3.0302929075762837
aF-3.797176668435009
aa(lp5
F-1.02761380880914
aF3.9903420318110223
aa(lp6
F-1.4621883783084488
aF0.4418320333077772
aa(lp7
F-1.5306123620760734
aF-3.7442255552530637
aa.