(lp0
(lp1
F2.8738072381322617
aF-0.20855818240735063
aF6.238868008135845
aa(lp2
F2.464369707143633
aF-4.145093052943694
aF4.869187664084727
aa(lp3
F-0.8998123723780892
aF-4.38596453049173
aF3.140475518892205
aa(lp4
F2.7890638796000142
aF3.7818833048305383
aF1.4729844544021324
aa(lp5
F7.228428675512433
aF0.2975726605873986
aF4.72650984317155
aa(lp6
F-0.6079554084088813
aF4.260265222789831
aF3.1145036275507705
aa(lp7
F-5.353087190363768
aF0.45889005387187115
aF4.712484895140556
aa.