(lp0
(lp1
F2.300778169254615
aF0.010267190597563577
aF0.04611950513945812
aa(lp2
F2.9938653013585848
aF-3.6550933425953334
aF4.771499511024162
aa(lp3
F7.2831255900833245
aF-0.5327787301625468
aF1.5229225033876297
aa(lp4
F2.943498359067615
aF3.610189475771177
aF1.5924244840554187
aa.