(lp0
(lp1
F7.150717091163966
aF0.4495377550012395
aa(lp2
F3.1479714057047916
aF3.801559890719554
aa(lp3
F2.9632363948027063
aF-0.07828726798767532
aa(lp4
F2.929702306571052
aF-4.3221897998488075
aa(lp5
F-0.81483238320756
aF4.071565745118287
aa(lp6
F-1.505327313385301
aF0.06641853344078064
aa(lp7
F-1.2
aF-4.7
aa.