(lp0
(lp1
F2.785579527866954
aF-0.1852112125464218
aF6.222968559056413
aa(lp2
F3.2768266075312615
aF-3.9848544206799335
aF4.7137583913058805
aa(lp3
F7.315727982702567
aF0.3342161791057782
aF1.5274258184804865
aa(lp4
F3.3704089799120034
aF4.050372719856517
aF3.0933407487971314
aa(lp5
F-0.7888453932953141
aF4.080629277172902
aF3.058171468378404
aa(lp6
F-5.382515675350115
aF1.2214426671568623
aF3.060326849078822
aa.