(lp0
(lp1
F2.3750308554912425
aF-0.13674914068139213
aF6.215635156771467
aa(lp2
F3.137256056425194
aF3.5334392797695227
aF1.5390490423159282
aa(lp3
F7.317704748162477
aF0.6912703449877446
aF4.758198612959664
aa(lp4
F2.9663674696404874
aF-4.444004408331064
aF3.1917228943735902
aa(lp5
F-0.6428482589770934
aF-4.5442258715453345
aF3.2105775532411642
aa.