(lp0
(lp1
F2.9757855049060575
aF-0.3424246347677423
aF0.08293095973614292
aa(lp2
F2.5924587385881797
aF-4.146902109513098
aF4.8609271575317345
aa(lp3
F7.276471996840513
aF-0.15647031896423333
aF1.498960696023579
aa(lp4
F3.1367646539296663
aF3.7222684037258746
aF3.0590968838638783
aa(lp5
F-0.24338743874586058
aF4.951860602730862
aF3.260169747828421
aa(lp6
F-4.959730482606496
aF0.46589830691123346
aF3.1497631153375947
aa(lp7
F-1.9671004319068222
aF-3.6385721832432996
aF6.191611937073649
aa.