(lp0
(lp1
F7.3
aF-0.7
aa(lp2
F3.5
aF4.1
aa(lp3
F2.4181931803337555
aF-0.10249179641720002
aa(lp4
F2.7879880197392675
aF-4.1460010395946
aa(lp5
F-1.3
aF3.6
aa(lp6
F-1.5429766130489226
aF-0.6932775731327301
aa(lp7
F-0.9092110836074503
aF-4.512469726400332
aa.