(lp0
(lp1
F7.330342411859455
aF0.2552637011466617
aa(lp2
F2.2639048099381904
aF4.2691014693389615
aa(lp3
F2.934600537910649
aF0.430305049792883
aa(lp4
F3.184598097496987
aF-4.036753960193857
aa(lp5
F-1.2605557028802141
aF3.8369169349185333
aa(lp6
F-1.8146317454580436
aF0.12251791308184652
aa(lp7
F-1.1334720947544823
aF-4.1024607764340715
aa.