(lp0
(lp1
F7.253817986872942
aF-0.3045321005887224
aa(lp2
F3.2210172644351274
aF3.903759945976634
aa(lp3
F2.434522349916083
aF-0.1997078587753927
aa(lp4
F2.7403047451626223
aF-4.38519977051846
aa(lp5
F-1.3
aF3.6
aa(lp6
F-1.81579858931348
aF-0.4887015559692092
aa(lp7
F-1.087427712883081
aF-4.208640480209919
aa.