(lp0
(lp1
F2.356714859012543
aF-0.08867544191912397
aF0.04611950513945812
aa(lp2
F2.6871822605925453
aF-4.0093507199813505
aF4.771499511024162
aa(lp3
F7.2987336619583765
aF0.0602815719550277
aF1.5229225033876297
aa(lp4
F2.9515071197185088
aF4.108150232365924
aF1.5924244840554187
aa(lp5
F-0.9717188042848466
aF-3.9349478479042075
aF3.1247837736614548
aa(lp6
F-1.3948751970424813
aF4.232203548120438
aF3.0745138668119614
aa(lp7
F-5.180613549888389
aF0.5945449885979426
aF3.0770309866530963
aa.