(lp0
(lp1
F7.3
aF-0.7
aa(lp2
F3.16192916695248
aF3.7855414413252517
aa(lp3
F2.8736602318833118
aF0.4936351984940694
aa(lp4
F2.6680046676664344
aF-4.053702037507828
aa(lp5
F-1.3
aF3.6
aa(lp6
F-1.7
aF-0.6
aa(lp7
F-0.8391256444227893
aF-4.692155867338535
aa.