(lp0
(lp1
F2.644282933421466
aF-0.36606804047743624
aF6.224927039292522
aa(lp2
F2.425647511877957
aF-4.233766896106021
aF4.728994408971442
aa(lp3
F-1.6870495311048517
aF-4.108711980294448
aF3.16197159203583
aa(lp4
F-5.145712166445312
aF-0.2710948033959134
aF1.5470468174395982
aa(lp5
F-1.2470061996342778
aF4.489948412211856
aF0.11373621469421713
aa(lp6
F2.3233669474543057
aF4.2036053988922575
aF6.170649281495744
aa(lp7
F7.39233793618318
aF-0.8395678373066766
aF1.50776053343331
aa.