(lp0
(lp1
F2.681006203315424
aF0.39579831399801674
aF6.2337898312404665
aa(lp2
F3.0473624788896947
aF3.703314410547621
aF1.518499031609037
aa(lp3
F2.873221876793857
aF-3.71001746466603
aF4.673476161010297
aa(lp4
F7.2256597815723325
aF-0.8046587795010045
aF1.5188553421210325
aa.