(lp0
(lp1
F2.2454035824887506
aF0.04228072226069417
aF0.04611950513945812
aa(lp2
F3.177920317659212
aF-3.7608900722749046
aF4.771499511024162
aa(lp3
F7.3286806349749405
aF-0.42293096707844147
aF1.5229225033876297
aa(lp4
F2.943498359067615
aF3.610189475771177
aF1.5924244840554187
aa.