(lp0
(lp1
F2.451565086753347
aF0.15094098415784835
aF0.034368716132616405
aa(lp2
F3.066669794053909
aF-4.2063459386335165
aF4.79121019109728
aa(lp3
F-0.6006548302804713
aF-4.326638928658208
aF3.209359358037898
aa(lp4
F-5.579948716036761
aF-0.8612414644724087
aF1.564740676031412
aa(lp5
F7.225938905767778
aF0.02112705457994668
aF1.5735013834861806
aa(lp6
F3.795412662257938
aF4.329318696803295
aF3.1539944223037994
aa.