(lp0
(lp1
F7.285599740887633
aF-0.11840439665853467
aa(lp2
F3.2035024917912445
aF3.7775295818459016
aa(lp3
F2.2816653445408956
aF0.0659785430472151
aa(lp4
F2.991745124355213
aF-4.22834699078579
aa(lp5
F-0.5
aF4.5
aa(lp6
F-1.0847781625461839
aF-4.190085919694207
aa(lp7
F-5.5
aF0.8
aa.