(lp0
(lp1
F2.2502095165391847
aF0.08038720600570266
aF0.04611950513945812
aa(lp2
F2.9477032935395657
aF-3.602513750010872
aF4.771499511024162
aa(lp3
F7.355141534274857
aF-0.9357806976824776
aF1.5229225033876297
aa.