(lp0
(lp1
F2.6921252145119876
aF0.35494563919510547
aF0.045494064120524424
aa(lp2
F2.5167473893024512
aF4.142246269805189
aF1.4720922093079782
aa(lp3
F7.266952215461137
aF0.6225487295379728
aF4.761863032456903
aa(lp4
F3.331659726312838
aF-3.8047308885718705
aF3.110575638410981
aa(lp5
F-1.54790581004808
aF-4.405376278265357
aF3.17480971465244
aa(lp6
F-5.642285360223772
aF-0.4170550068875919
aF1.6382625335273826
aa(lp7
F-1.5949830281377975
aF4.018356098899705
aF1.5442285478316449
aa.