(lp0
(lp1
F2.6922148031457778
aF0.3531393918974663
aF0.04611950513945812
aa(lp2
F2.4918252482705947
aF-4.252430166352357
aF4.771499511024162
aa(lp3
F7.330625897004813
aF-0.6226566102057185
aF1.5229225033876297
aa(lp4
F2.991525326283273
aF3.6336029657780333
aF1.5924244840554187
aa(lp5
F-0.7653675523065421
aF-4.153457852831991
aF3.3991623002384377
aa.