(lp0
(lp1
F2.991478364236725
aF0.4904311536945381
aF0.04611950513945812
aa(lp2
F3.0008657059437436
aF-3.635461265550201
aF4.771499511024162
aa(lp3
F7.348792362489268
aF-0.18401629272070785
aF1.5229225033876297
aa(lp4
F2.4772795202813276
aF4.288264513428572
aF1.5924244840554187
aa(lp5
F-0.8606709588647917
aF4.023523965476318
aF3.2544137143927205
aa(lp6
F-5.161328409933029
aF0.5063431681061126
aF4.65148112400617
aa.