(lp0
(lp1
F7.254473002067691
aF0.16062157320190867
aa(lp2
F3.27443786083182
aF4.208481186812987
aa(lp3
F2.4191446887090824
aF-0.02386014478261403
aa(lp4
F3.064493630413012
aF-3.767926865363274
aa(lp5
F-1.2613286824252807
aF3.6515105363112044
aa(lp6
F-1.3846542504626964
aF0.09866245843798022
aa(lp7
F-0.707750561260162
aF-4.4511618680448635
aa.