(lp0
(lp1
F7.3
aF-0.7
aa(lp2
F2.8217967505404244
aF4.309404227829658
aa(lp3
F2.7178386993139383
aF-0.445217254199955
aa(lp4
F2.8897226692986946
aF-3.8684537809045825
aa(lp5
F-1.3515852716326904
aF4.405954890113772
aa(lp6
F-1.5663085223303075
aF-4.050265839183863
aa(lp7
F-5.581038325406147
aF-0.4205472146211323
aa(lp8
F7.316958743910591
aF1.3746517704348817
aF4.9220647922061564
aa.