(lp0
(lp1
F2.8449829795388295
aF0.3514143422034651
aF6.233134990039392
aa(lp2
F3.03738050369696
aF-3.649605613537514
aF4.74170812863888
aa(lp3
F-1.635459293800342
aF-4.390730036769474
aF3.1814226221003103
aa(lp4
F-5.345324052465655
aF0.35868842807614665
aF1.5555882902238947
aa(lp5
F-1.4699704080297
aF3.824824747500884
aF1.6375993130109987
aa(lp6
F2.144814646838444
aF4.634985166186856
aF0.13948715821315938
aa(lp7
F7.26879999574226
aF-0.9242980663708013
aF1.4777756554101809
aa.