(lp0
(lp1
F2.5810419099216366
aF-0.30745892103743155
aF0.001888464880324378
aa(lp2
F3.213661788437283
aF-3.8604847422549753
aF4.877931321144169
aa(lp3
F7.378675136791184
aF-0.845698617890368
aF1.5238239585096252
aa(lp4
F-0.3720797741824222
aF-4.60673591519698
aF3.3100086249660343
aa.