(lp0
(lp1
F2.3256653288328546
aF-0.016689154311176554
aF0.04611950513945812
aa(lp2
F3.0904669456634584
aF-3.6608753985069122
aF4.771499511024162
aa(lp3
F7.398483812136058
aF-0.9310361597052392
aF1.5229225033876297
aa.