(lp0
(lp1
F2.9513098687574795
aF-0.029821697370651434
aF6.229948703921357
aa(lp2
F2.8596155109464636
aF3.7736573780831613
aF1.5805196159028332
aa(lp3
F-1.1525169336048082
aF3.87376041803576
aF3.151278540783511
aa(lp4
F7.237302007981368
aF-0.1259045664802665
aF4.7517560966943275
aa(lp5
F3.281681529505047
aF-3.9119312605759964
aF4.713647222946381
aa(lp6
F-5.159892826433225
aF0.02897840356018149
aF4.709797668916958
aa(lp7
F-1.3779996191085602
aF-3.950245369349841
aF0.004674474736316328
aa.