(lp0
(lp1
F2.360285302306554
aF-0.0162804963040019
aF6.235188717091777
aa(lp2
F3.4053226691827967
aF-3.9410218890868007
aF4.94560884155435
aa(lp3
F7.355972732444096
aF-0.69052054254773
aF1.5545532692705761
aa.